; Function Attrs: mustprogress uwtable
define dso_local void @_ZN20cmFindLibraryCommandC2ER17cmExecutionStatus(ptr noundef nonnull align 8 dereferenceable(600) %0, ptr noundef nonnull align 1 %1) unnamed_addr #3 align 2 personality ptr @__gxx_personality_v0 {
  %3 = alloca %"class.std::__cxx11::basic_string", align 8
  %4 = alloca %"class.std::allocator", align 1
  call void @_ZNSaIcEC1Ev(ptr noundef nonnull align 1 dereferenceable(1) %4) #17
  %5 = invoke noundef ptr @_ZNSt7__cxx1112basic_stringIcSt11char_traitsIcESaIcEE13_M_local_dataEv(ptr noundef nonnull align 8 dereferenceable(32) %3)
          to label %.noexc unwind label %17

.noexc:                                           ; preds = %2
  invoke void @_ZNSt7__cxx1112basic_stringIcSt11char_traitsIcESaIcEE12_Alloc_hiderC1EPcRKS3_(ptr noundef nonnull align 8 dereferenceable(8) %3, ptr noundef %5, ptr noundef nonnull align 1 dereferenceable(1) %4)
          to label %.noexc8 unwind label %17

.noexc8:                                          ; preds = %.noexc
  invoke void @_ZNSt7__cxx1112basic_stringIcSt11char_traitsIcESaIcEE12_M_constructIPKcEEvT_S8_St20forward_iterator_tag(ptr noundef nonnull align 8 dereferenceable(32) %3, ptr noundef nonnull @.str, ptr noundef nonnull getelementptr inbounds ([13 x i8], ptr @.str, i64 0, i64 12))
          to label %_ZNSt7__cxx1112basic_stringIcSt11char_traitsIcESaIcEEC2IS3_EEPKcRKS3_.exit unwind label %6

6:                                                ; preds = %.noexc8
  %7 = landingpad { ptr, i32 }
          cleanup
  call void @_ZNSaIcED2Ev(ptr noundef nonnull align 1 dereferenceable(1) %3) #17
  br label %.body

_ZNSt7__cxx1112basic_stringIcSt11char_traitsIcESaIcEEC2IS3_EEPKcRKS3_.exit: ; preds = %.noexc8
  invoke void @_ZN10cmFindBaseC2ENSt7__cxx1112basic_stringIcSt11char_traitsIcESaIcEEER17cmExecutionStatus(ptr noundef nonnull align 8 dereferenceable(600) %0, ptr noundef nonnull %3, ptr noundef nonnull align 1 %1)
          to label %8 unwind label %19

8:                                                ; preds = %_ZNSt7__cxx1112basic_stringIcSt11char_traitsIcESaIcEEC2IS3_EEPKcRKS3_.exit
  call void @_ZNSt7__cxx1112basic_stringIcSt11char_traitsIcESaIcEED1Ev(ptr noundef nonnull align 8 dereferenceable(32) %3) #17
  call void @_ZNSaIcED1Ev(ptr noundef nonnull align 1 dereferenceable(1) %4) #17
  store ptr getelementptr inbounds ({ [5 x ptr] }, ptr @_ZTV20cmFindLibraryCommand, i64 0, i32 0, i64 2), ptr %0, align 8
  %9 = getelementptr inbounds i8, ptr %0, i64 528
  %10 = invoke noundef nonnull align 8 dereferenceable(32) ptr @_ZNSt7__cxx1112basic_stringIcSt11char_traitsIcESaIcEEaSEPKc(ptr noundef nonnull align 8 dereferenceable(32) %9, ptr noundef nonnull @.str.2)
          to label %11 unwind label %21

11:                                               ; preds = %8
  %12 = getelementptr inbounds i8, ptr %0, i64 521
  store i8 1, ptr %12, align 1
  %13 = getelementptr inbounds i8, ptr %0, i64 424
  %14 = invoke noundef nonnull align 8 dereferenceable(32) ptr @_ZNSt7__cxx1112basic_stringIcSt11char_traitsIcESaIcEEaSEPKc(ptr noundef nonnull align 8 dereferenceable(32) %13, ptr noundef nonnull @.str.3)
          to label %15 unwind label %21

15:                                               ; preds = %11
  %16 = getelementptr inbounds i8, ptr %0, i64 456
  store i32 2, ptr %16, align 8
  ret void

17:                                               ; preds = %.noexc, %2
  %18 = landingpad { ptr, i32 }
          cleanup
  br label %.body

19:                                               ; preds = %_ZNSt7__cxx1112basic_stringIcSt11char_traitsIcESaIcEEC2IS3_EEPKcRKS3_.exit
  %20 = landingpad { ptr, i32 }
          cleanup
  call void @_ZNSt7__cxx1112basic_stringIcSt11char_traitsIcESaIcEED1Ev(ptr noundef nonnull align 8 dereferenceable(32) %3) #17
  br label %.body

.body:                                            ; preds = %17, %6, %19
  %.pn = phi { ptr, i32 } [ %20, %19 ], [ %18, %17 ], [ %7, %6 ]
  call void @_ZNSaIcED1Ev(ptr noundef nonnull align 1 dereferenceable(1) %4) #17
  br label %23

21:                                               ; preds = %11, %8
  %22 = landingpad { ptr, i32 }
          cleanup
  call void @_ZN10cmFindBaseD2Ev(ptr noundef nonnull align 8 dereferenceable(600) %0) #17
  br label %23

23:                                               ; preds = %21, %.body
  %.pn6 = phi { ptr, i32 } [ %22, %21 ], [ %.pn, %.body ]
  resume { ptr, i32 } %.pn6
}